target datalayout = "e-m:e-p270:32:32-p271:32:32-p272:64:64-i64:64-i128:128-f80:128-n8:16:32:64-S128"
target triple = "x86_64-pc-linux-gnu"

%struct._ndmp_conv_data_t = type { i8, ptr, ptr, ptr, ptr, ptr, ptr }

@hf_ndmp_addr_type = internal global i32 0, align 4
@hf_ndmp_tcp_addr_list = internal global i32 0, align 4
@hf_ndmp_addr_ip = internal global i32 0, align 4
@hf_ndmp_addr_tcp = internal global i32 0, align 4
@hf_ndmp_addr_fcal_loop_id = internal global i32 0, align 4
@hf_ndmp_addr_ipc = internal global i32 0, align 4
@ett_ndmp_addr = internal global i32 0, align 4
@ndmp_default_protocol_version = internal global i32 4, align 4
@ndmp_conv_data = internal global ptr null, align 8
@.str.756 = private unnamed_addr constant [10 x i8] c"Type: %s \00", align 1
@.str.757 = private unnamed_addr constant [27 x i8] c"Unknown addr type (0x%02x)\00", align 1

; Function Attrs: nounwind null_pointer_is_valid sspstrong uwtable
define internal zeroext i8 @get_ndmp_protocol_version() #8 {
  %1 = alloca i8, align 1
  %2 = load ptr, ptr @ndmp_conv_data, align 8
  %3 = icmp ne ptr %2, null
  br i1 %3, label %4, label %10

4:                                                ; preds = %0
  %5 = load ptr, ptr @ndmp_conv_data, align 8
  %6 = getelementptr inbounds nuw %struct._ndmp_conv_data_t, ptr %5, i32 0, i32 0
  %7 = load i8, ptr %6, align 8
  %8 = zext i8 %7 to i32
  %9 = icmp eq i32 %8, 0
  br i1 %9, label %10, label %13

10:                                               ; preds = %4, %0
  %11 = load i32, ptr @ndmp_default_protocol_version, align 4
  %12 = trunc i32 %11 to i8
  store i8 %12, ptr %1, align 1
  br label %17

13:                                               ; preds = %4
  %14 = load ptr, ptr @ndmp_conv_data, align 8
  %15 = getelementptr inbounds nuw %struct._ndmp_conv_data_t, ptr %14, i32 0, i32 0
  %16 = load i8, ptr %15, align 8
  store i8 %16, ptr %1, align 1
  br label %17

17:                                               ; preds = %13, %10
  %18 = load i8, ptr %1, align 1
  ret i8 %18
}

; Function Attrs: null_pointer_is_valid sspstrong uwtable
define internal i32 @dissect_ndmp_addr(ptr noundef %0, i32 noundef %1, ptr noundef %2, ptr noundef %3) #0 {
  %5 = alloca ptr, align 8
  %6 = alloca i32, align 4
  %7 = alloca ptr, align 8
  %8 = alloca ptr, align 8
  %9 = alloca ptr, align 8
  %10 = alloca i32, align 4
  store ptr %0, ptr %5, align 8
  store i32 %1, ptr %6, align 4
  store ptr %2, ptr %7, align 8
  store ptr %3, ptr %8, align 8
  call void @llvm.lifetime.start.p0(i64 8, ptr %9) #9
  call void @llvm.lifetime.start.p0(i64 4, ptr %10) #9
  %11 = load ptr, ptr %5, align 8
  %12 = load i32, ptr %6, align 4
  %13 = call i32 @tvb_get_ntohl(ptr noundef %11, i32 noundef %12)
  store i32 %13, ptr %10, align 4
  %14 = load ptr, ptr %8, align 8
  %15 = load ptr, ptr %5, align 8
  %16 = load i32, ptr %6, align 4
  %17 = load i32, ptr @ett_ndmp_addr, align 4
  %18 = load i32, ptr %10, align 4
  %19 = call ptr @val_to_str(i32 noundef %18, ptr noundef @addr_type_vals, ptr noundef @.str.757)
  %20 = call ptr (ptr, ptr, i32, i32, i32, ptr, ptr, ...) @proto_tree_add_subtree_format(ptr noundef %14, ptr noundef %15, i32 noundef %16, i32 noundef 4, i32 noundef %17, ptr noundef null, ptr noundef @.str.756, ptr noundef %19)
  store ptr %20, ptr %9, align 8
  %21 = load ptr, ptr %9, align 8
  %22 = load i32, ptr @hf_ndmp_addr_type, align 4
  %23 = load ptr, ptr %5, align 8
  %24 = load i32, ptr %6, align 4
  %25 = call ptr @proto_tree_add_item(ptr noundef %21, i32 noundef %22, ptr noundef %23, i32 noundef %24, i32 noundef 4, i32 noundef 0)
  %26 = load i32, ptr %6, align 4
  %27 = add i32 %26, 4
  store i32 %27, ptr %6, align 4
  %28 = load i32, ptr %10, align 4
  switch i32 %28, label %70 [
    i32 0, label %70
    i32 1, label %29
    i32 2, label %56
    i32 3, label %64
  ]

29:                                               ; preds = %4
  %30 = call zeroext i8 @get_ndmp_protocol_version()
  %31 = zext i8 %30 to i32
  %32 = icmp slt i32 %31, 4
  br i1 %32, label %33, label %48

33:                                               ; preds = %29
  %34 = load ptr, ptr %9, align 8
  %35 = load i32, ptr @hf_ndmp_addr_ip, align 4
  %36 = load ptr, ptr %5, align 8
  %37 = load i32, ptr %6, align 4
  %38 = call ptr @proto_tree_add_item(ptr noundef %34, i32 noundef %35, ptr noundef %36, i32 noundef %37, i32 noundef 4, i32 noundef 0)
  %39 = load i32, ptr %6, align 4
  %40 = add i32 %39, 4
  store i32 %40, ptr %6, align 4
  %41 = load ptr, ptr %9, align 8
  %42 = load i32, ptr @hf_ndmp_addr_tcp, align 4
  %43 = load ptr, ptr %5, align 8
  %44 = load i32, ptr %6, align 4
  %45 = call ptr @proto_tree_add_item(ptr noundef %41, i32 noundef %42, ptr noundef %43, i32 noundef %44, i32 noundef 4, i32 noundef 0)
  %46 = load i32, ptr %6, align 4
  %47 = add i32 %46, 4
  store i32 %47, ptr %6, align 4
  br label %55

48:                                               ; preds = %29
  %49 = load ptr, ptr %5, align 8
  %50 = load ptr, ptr %7, align 8
  %51 = load ptr, ptr %9, align 8
  %52 = load i32, ptr %6, align 4
  %53 = load i32, ptr @hf_ndmp_tcp_addr_list, align 4
  %54 = call i32 @dissect_rpc_array(ptr noundef %49, ptr noundef %50, ptr noundef %51, i32 noundef %52, ptr noundef @dissect_ndmp_v4_tcp_addr, i32 noundef %53)
  store i32 %54, ptr %6, align 4
  br label %55

55:                                               ; preds = %48, %33
  br label %70

56:                                               ; preds = %4
  %57 = load ptr, ptr %9, align 8
  %58 = load i32, ptr @hf_ndmp_addr_fcal_loop_id, align 4
  %59 = load ptr, ptr %5, align 8
  %60 = load i32, ptr %6, align 4
  %61 = call ptr @proto_tree_add_item(ptr noundef %57, i32 noundef %58, ptr noundef %59, i32 noundef %60, i32 noundef 4, i32 noundef 0)
  %62 = load i32, ptr %6, align 4
  %63 = add i32 %62, 4
  store i32 %63, ptr %6, align 4
  br label %70

64:                                               ; preds = %4
  %65 = load ptr, ptr %5, align 8
  %66 = load ptr, ptr %9, align 8
  %67 = load i32, ptr @hf_ndmp_addr_ipc, align 4
  %68 = load i32, ptr %6, align 4
  %69 = call i32 @dissect_rpc_data(ptr noundef %65, ptr noundef %66, i32 noundef %67, i32 noundef %68)
  store i32 %69, ptr %6, align 4
  br label %70

70:                                               ; preds = %4, %64, %56, %55, %4
  %71 = load i32, ptr %6, align 4
  call void @llvm.lifetime.end.p0(i64 4, ptr %10) #9
  call void @llvm.lifetime.end.p0(i64 8, ptr %9) #9
  ret i32 %71
}