; Function Attrs: null_pointer_is_valid sspstrong uwtable
define internal fastcc i32 @dissect_ndmp_addr(ptr noundef %0, i32 noundef %1, ptr noundef %2, ptr noundef %3) unnamed_addr #0 {
  %5 = tail call i32 @tvb_get_ntohl(ptr noundef %0, i32 noundef %1)
  %6 = load i32, ptr @ett_ndmp_addr, align 4
  %7 = tail call ptr @val_to_str(i32 noundef %5, ptr noundef nonnull @addr_type_vals, ptr noundef nonnull @.str.757)
  %8 = tail call ptr (ptr, ptr, i32, i32, i32, ptr, ptr, ...) @proto_tree_add_subtree_format(ptr noundef %3, ptr noundef %0, i32 noundef %1, i32 noundef 4, i32 noundef %6, ptr noundef null, ptr noundef nonnull @.str.756, ptr noundef %7)
  %9 = load i32, ptr @hf_ndmp_addr_type, align 4
  %10 = tail call ptr @proto_tree_add_item(ptr noundef %8, i32 noundef %9, ptr noundef %0, i32 noundef %1, i32 noundef 4, i32 noundef 0)
  %11 = add i32 %1, 4
  switch i32 %5, label %38 [
    i32 3, label %35
    i32 1, label %12
    i32 2, label %31
  ]

12:                                               ; preds = %4
  %13 = load ptr, ptr @ndmp_conv_data, align 8
  %.not.i = icmp eq ptr %13, null
  br i1 %.not.i, label %17, label %14

14:                                               ; preds = %12
  %15 = load i8, ptr %13, align 8
  %16 = icmp eq i8 %15, 0
  br i1 %16, label %17, label %get_ndmp_protocol_version.exit

17:                                               ; preds = %14, %12
  %18 = load i32, ptr @ndmp_default_protocol_version, align 4
  %19 = trunc i32 %18 to i8
  br label %get_ndmp_protocol_version.exit

get_ndmp_protocol_version.exit:                   ; preds = %14, %17
  %.0.i = phi i8 [ %19, %17 ], [ %15, %14 ]
  %20 = icmp ult i8 %.0.i, 4
  br i1 %20, label %21, label %28

21:                                               ; preds = %get_ndmp_protocol_version.exit
  %22 = load i32, ptr @hf_ndmp_addr_ip, align 4
  %23 = tail call ptr @proto_tree_add_item(ptr noundef %8, i32 noundef %22, ptr noundef %0, i32 noundef %11, i32 noundef 4, i32 noundef 0)
  %24 = add i32 %1, 8
  %25 = load i32, ptr @hf_ndmp_addr_tcp, align 4
  %26 = tail call ptr @proto_tree_add_item(ptr noundef %8, i32 noundef %25, ptr noundef %0, i32 noundef %24, i32 noundef 4, i32 noundef 0)
  %27 = add i32 %1, 12
  br label %38

28:                                               ; preds = %get_ndmp_protocol_version.exit
  %29 = load i32, ptr @hf_ndmp_tcp_addr_list, align 4
  %30 = tail call i32 @dissect_rpc_array(ptr noundef %0, ptr noundef %2, ptr noundef %8, i32 noundef %11, ptr noundef nonnull @dissect_ndmp_v4_tcp_addr, i32 noundef %29)
  br label %38

31:                                               ; preds = %4
  %32 = load i32, ptr @hf_ndmp_addr_fcal_loop_id, align 4
  %33 = tail call ptr @proto_tree_add_item(ptr noundef %8, i32 noundef %32, ptr noundef %0, i32 noundef %11, i32 noundef 4, i32 noundef 0)
  %34 = add i32 %1, 8
  br label %38

35:                                               ; preds = %4
  %36 = load i32, ptr @hf_ndmp_addr_ipc, align 4
  %37 = tail call i32 @dissect_rpc_data(ptr noundef %0, ptr noundef %8, i32 noundef %36, i32 noundef %11)
  br label %38

38:                                               ; preds = %21, %28, %35, %31, %4
  %.0 = phi i32 [ %11, %4 ], [ %34, %31 ], [ %27, %21 ], [ %30, %28 ], [ %37, %35 ]
  ret i32 %.0
}